target datalayout = "e-m:e-p270:32:32-p271:32:32-p272:64:64-i64:64-i128:128-f80:128-n8:16:32:64-S128"
target triple = "x86_64-pc-linux-gnu"

%class.RarVM = type { ptr, [8 x i32] }
%struct.VM_PreparedProgram = type <{ i32, [7 x i32], ptr, i32, [4 x i8] }>

; Function Attrs: mustprogress uwtable
define void @_ZN5RarVM7ExecuteEP18VM_PreparedProgram(ptr noundef nonnull align 8 dereferenceable(40) %0, ptr noundef %1) #2 align 2 {
  %3 = alloca ptr, align 8
  %4 = alloca ptr, align 8
  %5 = alloca i8, align 1
  %6 = alloca i32, align 4
  store ptr %0, ptr %3, align 8
  store ptr %1, ptr %4, align 8
  %7 = load ptr, ptr %3, align 8
  %8 = getelementptr inbounds %class.RarVM, ptr %7, i32 0, i32 1
  %9 = getelementptr inbounds [8 x i32], ptr %8, i64 0, i64 0
  %10 = load ptr, ptr %4, align 8
  %11 = getelementptr inbounds %struct.VM_PreparedProgram, ptr %10, i32 0, i32 1
  %12 = getelementptr inbounds [7 x i32], ptr %11, i64 0, i64 0
  call void @llvm.memcpy.p0.p0.i64(ptr align 8 %9, ptr align 4 %12, i64 28, i1 false)
  %13 = load ptr, ptr %4, align 8
  %14 = getelementptr inbounds %struct.VM_PreparedProgram, ptr %13, i32 0, i32 2
  store ptr null, ptr %14, align 8
  %15 = load ptr, ptr %4, align 8
  %16 = getelementptr inbounds %struct.VM_PreparedProgram, ptr %15, i32 0, i32 0
  %17 = load i32, ptr %16, align 8
  %18 = icmp ne i32 %17, 0
  br i1 %18, label %19, label %73

19:                                               ; preds = %2
  %20 = load ptr, ptr %4, align 8
  %21 = getelementptr inbounds %struct.VM_PreparedProgram, ptr %20, i32 0, i32 0
  %22 = load i32, ptr %21, align 8
  %23 = call noundef zeroext i1 @_ZN5RarVM21ExecuteStandardFilterE18VM_StandardFilters(ptr noundef nonnull align 8 dereferenceable(40) %7, i32 noundef %22)
  %24 = zext i1 %23 to i8
  store i8 %24, ptr %5, align 1
  %25 = load ptr, ptr %4, align 8
  %26 = getelementptr inbounds %struct.VM_PreparedProgram, ptr %25, i32 0, i32 1
  %27 = getelementptr inbounds [7 x i32], ptr %26, i64 0, i64 4
  %28 = load i32, ptr %27, align 4
  %29 = and i32 %28, 262143
  store i32 %29, ptr %6, align 4
  %30 = load i32, ptr %6, align 4
  %31 = load ptr, ptr %4, align 8
  %32 = getelementptr inbounds %struct.VM_PreparedProgram, ptr %31, i32 0, i32 3
  store i32 %30, ptr %32, align 8
  %33 = load ptr, ptr %4, align 8
  %34 = getelementptr inbounds %struct.VM_PreparedProgram, ptr %33, i32 0, i32 0
  %35 = load i32, ptr %34, align 8
  %36 = icmp eq i32 %35, 6
  br i1 %36, label %47, label %37

37:                                               ; preds = %19
  %38 = load ptr, ptr %4, align 8
  %39 = getelementptr inbounds %struct.VM_PreparedProgram, ptr %38, i32 0, i32 0
  %40 = load i32, ptr %39, align 8
  %41 = icmp eq i32 %40, 4
  br i1 %41, label %47, label %42

42:                                               ; preds = %37
  %43 = load ptr, ptr %4, align 8
  %44 = getelementptr inbounds %struct.VM_PreparedProgram, ptr %43, i32 0, i32 0
  %45 = load i32, ptr %44, align 8
  %46 = icmp eq i32 %45, 5
  br i1 %46, label %47, label %67

47:                                               ; preds = %42, %37, %19
  %48 = load i32, ptr %6, align 4
  %49 = mul i32 2, %48
  %50 = icmp ugt i32 %49, 262144
  br i1 %50, label %54, label %51

51:                                               ; preds = %47
  %52 = load i8, ptr %5, align 1
  %53 = trunc i8 %52 to i1
  br i1 %53, label %57, label %54

54:                                               ; preds = %51, %47
  %55 = getelementptr inbounds %class.RarVM, ptr %7, i32 0, i32 0
  %56 = load ptr, ptr %55, align 8
  br label %63

57:                                               ; preds = %51
  %58 = getelementptr inbounds %class.RarVM, ptr %7, i32 0, i32 0
  %59 = load ptr, ptr %58, align 8
  %60 = load i32, ptr %6, align 4
  %61 = zext i32 %60 to i64
  %62 = getelementptr inbounds i8, ptr %59, i64 %61
  br label %63

63:                                               ; preds = %57, %54
  %64 = phi ptr [ %56, %54 ], [ %62, %57 ]
  %65 = load ptr, ptr %4, align 8
  %66 = getelementptr inbounds %struct.VM_PreparedProgram, ptr %65, i32 0, i32 2
  store ptr %64, ptr %66, align 8
  br label %72

67:                                               ; preds = %42
  %68 = getelementptr inbounds %class.RarVM, ptr %7, i32 0, i32 0
  %69 = load ptr, ptr %68, align 8
  %70 = load ptr, ptr %4, align 8
  %71 = getelementptr inbounds %struct.VM_PreparedProgram, ptr %70, i32 0, i32 2
  store ptr %69, ptr %71, align 8
  br label %72

72:                                               ; preds = %67, %63
  br label %73

73:                                               ; preds = %72, %2
  ret void
}