; Function Attrs: mustprogress nofree norecurse nosync nounwind memory(readwrite, inaccessiblemem: none) uwtable
define void @_ZN5RarVM7ExecuteEP18VM_PreparedProgram(ptr nocapture noundef nonnull align 8 dereferenceable(40) %0, ptr nocapture noundef %1) local_unnamed_addr #5 align 2 {
  %3 = getelementptr inbounds i8, ptr %0, i64 8
  %4 = getelementptr inbounds i8, ptr %1, i64 4
  tail call void @llvm.memcpy.p0.p0.i64(ptr noundef nonnull align 8 dereferenceable(28) %3, ptr noundef nonnull align 4 dereferenceable(28) %4, i64 28, i1 false)
  %5 = getelementptr inbounds i8, ptr %1, i64 32
  store ptr null, ptr %5, align 8
  %6 = load i32, ptr %1, align 8
  %.not = icmp eq i32 %6, 0
  br i1 %.not, label %21, label %7

7:                                                ; preds = %2
  %8 = tail call noundef zeroext i1 @_ZN5RarVM21ExecuteStandardFilterE18VM_StandardFilters(ptr noundef nonnull align 8 dereferenceable(40) %0, i32 noundef %6)
  %9 = getelementptr inbounds i8, ptr %1, i64 20
  %10 = load i32, ptr %9, align 4
  %11 = and i32 %10, 262143
  %12 = getelementptr inbounds i8, ptr %1, i64 40
  store i32 %11, ptr %12, align 8
  %13 = load i32, ptr %1, align 8
  %.off = add i32 %13, -4
  %switch = icmp ult i32 %.off, 3
  br i1 %switch, label %14, label %19

14:                                               ; preds = %7
  %15 = icmp ult i32 %11, 131073
  %brmerge.not = and i1 %8, %15
  %16 = load ptr, ptr %0, align 8
  %17 = zext nneg i32 %11 to i64
  %.idx = select i1 %brmerge.not, i64 %17, i64 0
  %18 = getelementptr inbounds i8, ptr %16, i64 %.idx
  br label %.sink.split

19:                                               ; preds = %7
  %20 = load ptr, ptr %0, align 8
  br label %.sink.split

.sink.split:                                      ; preds = %19, %14
  %.sink = phi ptr [ %18, %14 ], [ %20, %19 ]
  store ptr %.sink, ptr %5, align 8
  br label %21

21:                                               ; preds = %.sink.split, %2
  ret void
}